; Function Attrs: nounwind uwtable
define i32 @mriStep_SetPredictorMethod(ptr noundef %0, i32 noundef %1) local_unnamed_addr #0 {
  %3 = alloca ptr, align 8
  call void @llvm.lifetime.start.p0(i64 8, ptr nonnull %3) #5
  %4 = call i32 @mriStep_AccessStepMem(ptr noundef %0, ptr noundef nonnull @__func__.mriStep_SetPredictorMethod, ptr noundef nonnull %3) #5
  %.not = icmp eq i32 %4, 0
  br i1 %.not, label %5, label %8

5:                                                ; preds = %2
  %6 = load ptr, ptr %3, align 8, !tbaa !8
  %7 = getelementptr inbounds nuw i8, ptr %6, i64 224
  store i32 %1, ptr %7, align 8, !tbaa !52
  br label %8

8:                                                ; preds = %2, %5
  call void @llvm.lifetime.end.p0(i64 8, ptr nonnull %3) #5
  ret i32 %4
}